target datalayout = "e-m:e-p270:32:32-p271:32:32-p272:64:64-i64:64-i128:128-f80:128-n8:16:32:64-S128"
target triple = "x86_64-pc-linux-gnu"

%"struct.llvm::RegisterBankInfo::PartialMapping" = type { i32, i32, ptr }
%"class.llvm::TypeSize" = type { %"class.llvm::details::FixedOrScalableQuantity.base", [7 x i8] }
%"class.llvm::details::FixedOrScalableQuantity.base" = type <{ i64, i8 }>
%"struct.llvm::RegisterBankInfo::ValueMapping" = type <{ ptr, i32, [4 x i8] }>
%"class.llvm::details::FixedOrScalableQuantity" = type <{ i64, i8, [7 x i8] }>

; Function Attrs: mustprogress nounwind uwtable
define linkonce_odr hidden noundef i64 @_ZNK4llvm7details23FixedOrScalableQuantityINS_8TypeSizeEmE16getKnownMinValueEv(ptr noundef nonnull align 8 dereferenceable(9) %0) #0 comdat align 2 {
  %2 = alloca ptr, align 8
  store ptr %0, ptr %2, align 8
  %3 = load ptr, ptr %2, align 8
  %4 = getelementptr inbounds nuw %"class.llvm::details::FixedOrScalableQuantity", ptr %3, i32 0, i32 0
  %5 = load i64, ptr %4, align 8
  ret i64 %5
}

; Function Attrs: mustprogress nounwind uwtable
define linkonce_odr hidden void @_ZN4llvm7details23FixedOrScalableQuantityINS_8TypeSizeEmEC2Emb(ptr noundef nonnull align 8 dereferenceable(9) %0, i64 noundef %1, i1 noundef zeroext %2) unnamed_addr #0 comdat align 2 {
  %4 = alloca ptr, align 8
  %5 = alloca i64, align 8
  %6 = alloca i8, align 1
  store ptr %0, ptr %4, align 8
  store i64 %1, ptr %5, align 8
  %7 = zext i1 %2 to i8
  store i8 %7, ptr %6, align 1
  %8 = load ptr, ptr %4, align 8
  %9 = getelementptr inbounds nuw %"class.llvm::details::FixedOrScalableQuantity", ptr %8, i32 0, i32 0
  %10 = load i64, ptr %5, align 8
  store i64 %10, ptr %9, align 8
  %11 = getelementptr inbounds nuw %"class.llvm::details::FixedOrScalableQuantity", ptr %8, i32 0, i32 1
  %12 = load i8, ptr %6, align 1
  %13 = trunc i8 %12 to i1
  %14 = zext i1 %13 to i8
  store i8 %14, ptr %11, align 8
  ret void
}

; Function Attrs: mustprogress nounwind uwtable
define dso_local noundef i32 @_ZN4llvm26AArch64GenRegisterBankInfo23getRegBankBaseIdxOffsetEjNS_8TypeSizeE(i32 noundef %0, i64 %1, i8 %2) #0 align 2 {
  %4 = alloca i32, align 4
  %5 = alloca %"class.llvm::TypeSize", align 8
  %6 = alloca i32, align 4
  %7 = alloca i32, align 4
  %8 = getelementptr inbounds nuw { i64, i8 }, ptr %5, i32 0, i32 0
  store i64 %1, ptr %8, align 8
  %9 = getelementptr inbounds nuw { i64, i8 }, ptr %5, i32 0, i32 1
  store i8 %2, ptr %9, align 8
  store i32 %0, ptr %6, align 4
  %10 = load i32, ptr %6, align 4
  %11 = icmp eq i32 %10, 7
  br i1 %11, label %12, label %25

12:                                               ; preds = %3
  %13 = call noundef i64 @_ZNK4llvm8TypeSizecvmEv(ptr noundef nonnull align 8 dereferenceable(9) %5)
  %14 = icmp ule i64 %13, 32
  br i1 %14, label %15, label %16

15:                                               ; preds = %12
  store i32 0, ptr %4, align 4
  br label %56

16:                                               ; preds = %12
  %17 = call noundef i64 @_ZNK4llvm8TypeSizecvmEv(ptr noundef nonnull align 8 dereferenceable(9) %5)
  %18 = icmp ule i64 %17, 64
  br i1 %18, label %19, label %20

19:                                               ; preds = %16
  store i32 1, ptr %4, align 4
  br label %56

20:                                               ; preds = %16
  %21 = call noundef i64 @_ZNK4llvm8TypeSizecvmEv(ptr noundef nonnull align 8 dereferenceable(9) %5)
  %22 = icmp ule i64 %21, 128
  br i1 %22, label %23, label %24

23:                                               ; preds = %20
  store i32 2, ptr %4, align 4
  br label %56

24:                                               ; preds = %20
  store i32 -1, ptr %4, align 4
  br label %56

25:                                               ; preds = %3
  %26 = load i32, ptr %6, align 4
  %27 = icmp eq i32 %26, 1
  br i1 %27, label %28, label %55

28:                                               ; preds = %25
  %29 = call noundef i64 @_ZNK4llvm7details23FixedOrScalableQuantityINS_8TypeSizeEmE16getKnownMinValueEv(ptr noundef nonnull align 8 dereferenceable(9) %5)
  %30 = trunc i64 %29 to i32
  store i32 %30, ptr %7, align 4
  %31 = load i32, ptr %7, align 4
  %32 = icmp ule i32 %31, 16
  br i1 %32, label %33, label %34

33:                                               ; preds = %28
  store i32 0, ptr %4, align 4
  br label %56

34:                                               ; preds = %28
  %35 = load i32, ptr %7, align 4
  %36 = icmp ule i32 %35, 32
  br i1 %36, label %37, label %38

37:                                               ; preds = %34
  store i32 1, ptr %4, align 4
  br label %56

38:                                               ; preds = %34
  %39 = load i32, ptr %7, align 4
  %40 = icmp ule i32 %39, 64
  br i1 %40, label %41, label %42

41:                                               ; preds = %38
  store i32 2, ptr %4, align 4
  br label %56

42:                                               ; preds = %38
  %43 = load i32, ptr %7, align 4
  %44 = icmp ule i32 %43, 128
  br i1 %44, label %45, label %46

45:                                               ; preds = %42
  store i32 3, ptr %4, align 4
  br label %56

46:                                               ; preds = %42
  %47 = load i32, ptr %7, align 4
  %48 = icmp ule i32 %47, 256
  br i1 %48, label %49, label %50

49:                                               ; preds = %46
  store i32 4, ptr %4, align 4
  br label %56

50:                                               ; preds = %46
  %51 = load i32, ptr %7, align 4
  %52 = icmp ule i32 %51, 512
  br i1 %52, label %53, label %54

53:                                               ; preds = %50
  store i32 5, ptr %4, align 4
  br label %56

54:                                               ; preds = %50
  store i32 -1, ptr %4, align 4
  br label %56

55:                                               ; preds = %25
  store i32 -1, ptr %4, align 4
  br label %56

56:                                               ; preds = %55, %54, %53, %49, %45, %41, %37, %33, %24, %23, %19, %15
  %57 = load i32, ptr %4, align 4
  ret i32 %57
}

; Function Attrs: mustprogress nounwind uwtable
define linkonce_odr hidden void @_ZN4llvm8TypeSizeC2Emb(ptr noundef nonnull align 8 dereferenceable(9) %0, i64 noundef %1, i1 noundef zeroext %2) unnamed_addr #0 comdat align 2 {
  %4 = alloca ptr, align 8
  %5 = alloca i64, align 8
  %6 = alloca i8, align 1
  store ptr %0, ptr %4, align 8
  store i64 %1, ptr %5, align 8
  %7 = zext i1 %2 to i8
  store i8 %7, ptr %6, align 1
  %8 = load ptr, ptr %4, align 8
  %9 = load i64, ptr %5, align 8
  %10 = load i8, ptr %6, align 1
  %11 = trunc i8 %10 to i1
  call void @_ZN4llvm7details23FixedOrScalableQuantityINS_8TypeSizeEmEC2Emb(ptr noundef nonnull align 8 dereferenceable(9) %8, i64 noundef %9, i1 noundef zeroext %11)
  ret void
}

; Function Attrs: mustprogress nounwind uwtable
define dso_local noundef ptr @_ZN4llvm26AArch64GenRegisterBankInfo15getValueMappingENS0_17PartialMappingIdxENS_8TypeSizeE(i32 noundef %0, i64 %1, i8 %2) #0 align 2 {
  %4 = alloca ptr, align 8
  %5 = alloca %"class.llvm::TypeSize", align 8
  %6 = alloca i32, align 4
  %7 = alloca i32, align 4
  %8 = alloca %"class.llvm::TypeSize", align 8
  %9 = alloca i32, align 4
  %10 = getelementptr inbounds nuw { i64, i8 }, ptr %5, i32 0, i32 0
  store i64 %1, ptr %10, align 8
  %11 = getelementptr inbounds nuw { i64, i8 }, ptr %5, i32 0, i32 1
  store i8 %2, ptr %11, align 8
  store i32 %0, ptr %6, align 4
  %12 = load i32, ptr %6, align 4
  call void @llvm.memcpy.p0.p0.i64(ptr align 8 %8, ptr align 8 %5, i64 16, i1 false)
  %13 = getelementptr inbounds nuw { i64, i8 }, ptr %8, i32 0, i32 0
  %14 = load i64, ptr %13, align 8
  %15 = getelementptr inbounds nuw { i64, i8 }, ptr %8, i32 0, i32 1
  %16 = load i8, ptr %15, align 8
  %17 = call noundef i32 @_ZN4llvm26AArch64GenRegisterBankInfo23getRegBankBaseIdxOffsetEjNS_8TypeSizeE(i32 noundef %12, i64 %14, i8 %16)
  store i32 %17, ptr %7, align 4
  %18 = load i32, ptr %7, align 4
  %19 = icmp eq i32 %18, -1
  br i1 %19, label %20, label %21

20:                                               ; preds = %3
  store ptr @_ZN4llvm26AArch64GenRegisterBankInfo11ValMappingsE, ptr %4, align 8
  br label %31

21:                                               ; preds = %3
  %22 = load i32, ptr %6, align 4
  %23 = sub nsw i32 %22, 1
  %24 = load i32, ptr %7, align 4
  %25 = add i32 %23, %24
  %26 = mul i32 %25, 3
  %27 = add i32 1, %26
  store i32 %27, ptr %9, align 4
  %28 = load i32, ptr %9, align 4
  %29 = zext i32 %28 to i64
  %30 = getelementptr inbounds [55 x %"struct.llvm::RegisterBankInfo::ValueMapping"], ptr @_ZN4llvm26AArch64GenRegisterBankInfo11ValMappingsE, i64 0, i64 %29
  store ptr %30, ptr %4, align 8
  br label %31

31:                                               ; preds = %21, %20
  %32 = load ptr, ptr %4, align 8
  ret ptr %32
}

; Function Attrs: mustprogress nounwind uwtable
define linkonce_odr hidden { i64, i8 } @_ZN4llvm8TypeSize8getFixedEm(i64 noundef %0) #0 comdat align 2 {
  %2 = alloca %"class.llvm::TypeSize", align 8
  %3 = alloca i64, align 8
  store i64 %0, ptr %3, align 8
  %4 = load i64, ptr %3, align 8
  call void @_ZN4llvm8TypeSizeC2Emb(ptr noundef nonnull align 8 dereferenceable(9) %2, i64 noundef %4, i1 noundef zeroext false)
  %5 = load { i64, i8 }, ptr %2, align 8
  ret { i64, i8 } %5
}

; Function Attrs: mustprogress nounwind uwtable
define dso_local noundef zeroext i1 @_ZN4llvm26AArch64GenRegisterBankInfo17checkValueMapImplEjjjj(i32 noundef %0, i32 noundef %1, i32 noundef %2, i32 noundef %3) #0 align 2 {
  %5 = alloca i32, align 4
  %6 = alloca i32, align 4
  %7 = alloca i32, align 4
  %8 = alloca i32, align 4
  %9 = alloca i32, align 4
  %10 = alloca ptr, align 8
  %11 = alloca %"class.llvm::TypeSize", align 8
  %12 = alloca { i64, i8 }, align 8
  store i32 %0, ptr %5, align 4
  store i32 %1, ptr %6, align 4
  store i32 %2, ptr %7, align 4
  store i32 %3, ptr %8, align 4
  %13 = load i32, ptr %5, align 4
  %14 = sub i32 %13, 1
  store i32 %14, ptr %9, align 4
  %15 = load i32, ptr %6, align 4
  %16 = load i32, ptr %7, align 4
  %17 = zext i32 %16 to i64
  %18 = call { i64, i8 } @_ZN4llvm8TypeSize8getFixedEm(i64 noundef %17)
  store { i64, i8 } %18, ptr %12, align 8
  call void @llvm.memcpy.p0.p0.i64(ptr align 8 %11, ptr align 8 %12, i64 9, i1 false)
  %19 = getelementptr inbounds nuw { i64, i8 }, ptr %11, i32 0, i32 0
  %20 = load i64, ptr %19, align 8
  %21 = getelementptr inbounds nuw { i64, i8 }, ptr %11, i32 0, i32 1
  %22 = load i8, ptr %21, align 8
  %23 = call noundef ptr @_ZN4llvm26AArch64GenRegisterBankInfo15getValueMappingENS0_17PartialMappingIdxENS_8TypeSizeE(i32 noundef %15, i64 %20, i8 %22)
  %24 = load i32, ptr %8, align 4
  %25 = zext i32 %24 to i64
  %26 = getelementptr inbounds %"struct.llvm::RegisterBankInfo::ValueMapping", ptr %23, i64 %25
  store ptr %26, ptr %10, align 8
  %27 = load ptr, ptr %10, align 8
  %28 = getelementptr inbounds nuw %"struct.llvm::RegisterBankInfo::ValueMapping", ptr %27, i32 0, i32 0
  %29 = load ptr, ptr %28, align 8
  %30 = load i32, ptr %9, align 4
  %31 = zext i32 %30 to i64
  %32 = getelementptr inbounds [9 x %"struct.llvm::RegisterBankInfo::PartialMapping"], ptr @_ZN4llvm26AArch64GenRegisterBankInfo12PartMappingsE, i64 0, i64 %31
  %33 = icmp eq ptr %29, %32
  br i1 %33, label %34, label %39

34:                                               ; preds = %4
  %35 = load ptr, ptr %10, align 8
  %36 = getelementptr inbounds nuw %"struct.llvm::RegisterBankInfo::ValueMapping", ptr %35, i32 0, i32 1
  %37 = load i32, ptr %36, align 8
  %38 = icmp eq i32 %37, 1
  br label %39

39:                                               ; preds = %34, %4
  %40 = phi i1 [ false, %4 ], [ %38, %34 ]
  ret i1 %40
}