; Function Attrs: mustprogress nounwind uwtable
define dso_local noundef zeroext i1 @_ZN4llvm26AArch64GenRegisterBankInfo17checkValueMapImplEjjjj(i32 noundef %0, i32 noundef %1, i32 noundef %2, i32 noundef %3) local_unnamed_addr #0 align 2 {
  %5 = alloca %"class.llvm::TypeSize", align 8
  %6 = add i32 %0, -1
  %7 = zext i32 %2 to i64
  call void @llvm.lifetime.start.p0(i64 16, ptr nonnull %5)
  store i64 %7, ptr %5, align 8
  %8 = getelementptr inbounds nuw i8, ptr %5, i64 8
  store i8 0, ptr %8, align 8
  switch i32 %1, label %_ZN4llvm26AArch64GenRegisterBankInfo23getRegBankBaseIdxOffsetEjNS_8TypeSizeE.exit.i [
    i32 7, label %9
    i32 1, label %18
  ]

9:                                                ; preds = %4
  %10 = call noundef i64 @_ZNK4llvm8TypeSizecvmEv(ptr noundef nonnull align 8 dereferenceable(9) %5) #15
  %11 = icmp ult i64 %10, 33
  br i1 %11, label %select.unfold.i, label %12

12:                                               ; preds = %9
  %13 = call noundef i64 @_ZNK4llvm8TypeSizecvmEv(ptr noundef nonnull align 8 dereferenceable(9) %5) #15
  %14 = icmp ult i64 %13, 65
  br i1 %14, label %select.unfold.i, label %15

15:                                               ; preds = %12
  %16 = call noundef i64 @_ZNK4llvm8TypeSizecvmEv(ptr noundef nonnull align 8 dereferenceable(9) %5) #15
  %17 = icmp ult i64 %16, 129
  br i1 %17, label %select.unfold.i, label %_ZN4llvm26AArch64GenRegisterBankInfo23getRegBankBaseIdxOffsetEjNS_8TypeSizeE.exit.i

18:                                               ; preds = %4
  %19 = icmp ult i32 %2, 17
  br i1 %19, label %select.unfold.i, label %20

20:                                               ; preds = %18
  %21 = icmp ult i32 %2, 33
  br i1 %21, label %select.unfold.i, label %22

22:                                               ; preds = %20
  %23 = icmp ult i32 %2, 65
  br i1 %23, label %select.unfold.i, label %24

24:                                               ; preds = %22
  %25 = icmp ult i32 %2, 129
  br i1 %25, label %select.unfold.i, label %26

26:                                               ; preds = %24
  %27 = icmp ult i32 %2, 257
  br i1 %27, label %select.unfold.i, label %28

28:                                               ; preds = %26
  %29 = icmp ult i32 %2, 513
  br i1 %29, label %select.unfold.i, label %_ZN4llvm26AArch64GenRegisterBankInfo23getRegBankBaseIdxOffsetEjNS_8TypeSizeE.exit.i

_ZN4llvm26AArch64GenRegisterBankInfo23getRegBankBaseIdxOffsetEjNS_8TypeSizeE.exit.i: ; preds = %28, %15, %4
  call void @llvm.lifetime.end.p0(i64 16, ptr nonnull %5)
  br label %_ZN4llvm26AArch64GenRegisterBankInfo15getValueMappingENS0_17PartialMappingIdxENS_8TypeSizeE.exit

select.unfold.i:                                  ; preds = %28, %26, %24, %22, %20, %18, %15, %12, %9
  %.0.i.ph.i = phi i32 [ 4, %26 ], [ 3, %24 ], [ 2, %22 ], [ 1, %20 ], [ 0, %18 ], [ 1, %12 ], [ 0, %9 ], [ 2, %15 ], [ 5, %28 ]
  call void @llvm.lifetime.end.p0(i64 16, ptr nonnull %5)
  %30 = add nsw i32 %1, -1
  %31 = add nuw nsw i32 %30, %.0.i.ph.i
  %32 = mul nuw nsw i32 %31, 3
  %33 = add nuw nsw i32 %32, 1
  %34 = zext nneg i32 %33 to i64
  %35 = getelementptr inbounds [55 x %"struct.llvm::RegisterBankInfo::ValueMapping"], ptr @_ZN4llvm26AArch64GenRegisterBankInfo11ValMappingsE, i64 0, i64 %34
  br label %_ZN4llvm26AArch64GenRegisterBankInfo15getValueMappingENS0_17PartialMappingIdxENS_8TypeSizeE.exit

_ZN4llvm26AArch64GenRegisterBankInfo15getValueMappingENS0_17PartialMappingIdxENS_8TypeSizeE.exit: ; preds = %_ZN4llvm26AArch64GenRegisterBankInfo23getRegBankBaseIdxOffsetEjNS_8TypeSizeE.exit.i, %select.unfold.i
  %.0.i = phi ptr [ %35, %select.unfold.i ], [ @_ZN4llvm26AArch64GenRegisterBankInfo11ValMappingsE, %_ZN4llvm26AArch64GenRegisterBankInfo23getRegBankBaseIdxOffsetEjNS_8TypeSizeE.exit.i ]
  %36 = zext i32 %3 to i64
  %37 = getelementptr inbounds %"struct.llvm::RegisterBankInfo::ValueMapping", ptr %.0.i, i64 %36
  %38 = load ptr, ptr %37, align 8
  %39 = zext i32 %6 to i64
  %40 = getelementptr inbounds [9 x %"struct.llvm::RegisterBankInfo::PartialMapping"], ptr @_ZN4llvm26AArch64GenRegisterBankInfo12PartMappingsE, i64 0, i64 %39
  %41 = icmp eq ptr %38, %40
  br i1 %41, label %42, label %46

42:                                               ; preds = %_ZN4llvm26AArch64GenRegisterBankInfo15getValueMappingENS0_17PartialMappingIdxENS_8TypeSizeE.exit
  %43 = getelementptr inbounds nuw i8, ptr %37, i64 8
  %44 = load i32, ptr %43, align 8
  %45 = icmp eq i32 %44, 1
  br label %46

46:                                               ; preds = %42, %_ZN4llvm26AArch64GenRegisterBankInfo15getValueMappingENS0_17PartialMappingIdxENS_8TypeSizeE.exit
  %47 = phi i1 [ false, %_ZN4llvm26AArch64GenRegisterBankInfo15getValueMappingENS0_17PartialMappingIdxENS_8TypeSizeE.exit ], [ %45, %42 ]
  ret i1 %47
}